target datalayout = "e-m:e-p270:32:32-p271:32:32-p272:64:64-i64:64-i128:128-f80:128-n8:16:32:64-S128"
target triple = "x86_64-pc-linux-gnu"

%struct.prov_cipher_ctx_st = type { [16 x i8], [16 x i8], [16 x i8], ptr, %union.anon, i32, i64, i64, i64, i64, i32, i8, i32, ptr, i32, i64, i32, i64, i32, ptr, ptr, ptr }
%union.anon = type { ptr }
%union.aligned_16bytes = type { i64, [8 x i8] }
%struct.prov_cipher_hw_st = type { ptr, ptr, ptr }

; Function Attrs: nounwind uwtable
define internal i64 @cts128_cs3_encrypt(ptr noundef %0, ptr noundef %1, ptr noundef %2, i64 noundef %3) #0 {
  %5 = alloca i64, align 8
  %6 = alloca ptr, align 8
  %7 = alloca ptr, align 8
  %8 = alloca ptr, align 8
  %9 = alloca i64, align 8
  %10 = alloca %union.aligned_16bytes, align 8
  %11 = alloca i64, align 8
  %12 = alloca i32, align 4
  store ptr %0, ptr %6, align 8, !tbaa !21
  store ptr %1, ptr %7, align 8, !tbaa !16
  store ptr %2, ptr %8, align 8, !tbaa !16
  store i64 %3, ptr %9, align 8, !tbaa !7
  call void @llvm.lifetime.start.p0(i64 16, ptr %10) #5
  call void @llvm.lifetime.start.p0(i64 8, ptr %11) #5
  %13 = load i64, ptr %9, align 8, !tbaa !7
  %14 = icmp ult i64 %13, 16
  br i1 %14, label %15, label %16

15:                                               ; preds = %4
  store i64 0, ptr %5, align 8
  store i32 1, ptr %12, align 4
  br label %89

16:                                               ; preds = %4
  %17 = load i64, ptr %9, align 8, !tbaa !7
  %18 = icmp eq i64 %17, 16
  br i1 %18, label %19, label %36

19:                                               ; preds = %16
  %20 = load ptr, ptr %6, align 8, !tbaa !21
  %21 = getelementptr inbounds nuw %struct.prov_cipher_ctx_st, ptr %20, i32 0, i32 19
  %22 = load ptr, ptr %21, align 8, !tbaa !27
  %23 = getelementptr inbounds nuw %struct.prov_cipher_hw_st, ptr %22, i32 0, i32 1
  %24 = load ptr, ptr %23, align 8, !tbaa !28
  %25 = load ptr, ptr %6, align 8, !tbaa !21
  %26 = load ptr, ptr %8, align 8, !tbaa !16
  %27 = load ptr, ptr %7, align 8, !tbaa !16
  %28 = load i64, ptr %9, align 8, !tbaa !7
  %29 = call i32 %24(ptr noundef %25, ptr noundef %26, ptr noundef %27, i64 noundef %28)
  %30 = icmp ne i32 %29, 0
  br i1 %30, label %31, label %33

31:                                               ; preds = %19
  %32 = load i64, ptr %9, align 8, !tbaa !7
  br label %34

33:                                               ; preds = %19
  br label %34

34:                                               ; preds = %33, %31
  %35 = phi i64 [ %32, %31 ], [ 0, %33 ]
  store i64 %35, ptr %5, align 8
  store i32 1, ptr %12, align 4
  br label %89

36:                                               ; preds = %16
  %37 = load i64, ptr %9, align 8, !tbaa !7
  %38 = urem i64 %37, 16
  store i64 %38, ptr %11, align 8, !tbaa !7
  %39 = load i64, ptr %11, align 8, !tbaa !7
  %40 = icmp eq i64 %39, 0
  br i1 %40, label %41, label %42

41:                                               ; preds = %36
  store i64 16, ptr %11, align 8, !tbaa !7
  br label %42

42:                                               ; preds = %41, %36
  %43 = load i64, ptr %11, align 8, !tbaa !7
  %44 = load i64, ptr %9, align 8, !tbaa !7
  %45 = sub i64 %44, %43
  store i64 %45, ptr %9, align 8, !tbaa !7
  %46 = load ptr, ptr %6, align 8, !tbaa !21
  %47 = getelementptr inbounds nuw %struct.prov_cipher_ctx_st, ptr %46, i32 0, i32 19
  %48 = load ptr, ptr %47, align 8, !tbaa !27
  %49 = getelementptr inbounds nuw %struct.prov_cipher_hw_st, ptr %48, i32 0, i32 1
  %50 = load ptr, ptr %49, align 8, !tbaa !28
  %51 = load ptr, ptr %6, align 8, !tbaa !21
  %52 = load ptr, ptr %8, align 8, !tbaa !16
  %53 = load ptr, ptr %7, align 8, !tbaa !16
  %54 = load i64, ptr %9, align 8, !tbaa !7
  %55 = call i32 %50(ptr noundef %51, ptr noundef %52, ptr noundef %53, i64 noundef %54)
  %56 = icmp ne i32 %55, 0
  br i1 %56, label %58, label %57

57:                                               ; preds = %42
  store i64 0, ptr %5, align 8
  store i32 1, ptr %12, align 4
  br label %89

58:                                               ; preds = %42
  %59 = load i64, ptr %9, align 8, !tbaa !7
  %60 = load ptr, ptr %7, align 8, !tbaa !16
  %61 = getelementptr inbounds nuw i8, ptr %60, i64 %59
  store ptr %61, ptr %7, align 8, !tbaa !16
  %62 = load i64, ptr %9, align 8, !tbaa !7
  %63 = load ptr, ptr %8, align 8, !tbaa !16
  %64 = getelementptr inbounds nuw i8, ptr %63, i64 %62
  store ptr %64, ptr %8, align 8, !tbaa !16
  %65 = getelementptr inbounds [16 x i8], ptr %10, i64 0, i64 0
  call void @llvm.memset.p0.i64(ptr align 8 %65, i8 0, i64 16, i1 false)
  %66 = getelementptr inbounds [16 x i8], ptr %10, i64 0, i64 0
  %67 = load ptr, ptr %7, align 8, !tbaa !16
  %68 = load i64, ptr %11, align 8, !tbaa !7
  call void @llvm.memcpy.p0.p0.i64(ptr align 8 %66, ptr align 1 %67, i64 %68, i1 false)
  %69 = load ptr, ptr %8, align 8, !tbaa !16
  %70 = load ptr, ptr %8, align 8, !tbaa !16
  %71 = getelementptr inbounds i8, ptr %70, i64 -16
  %72 = load i64, ptr %11, align 8, !tbaa !7
  call void @llvm.memcpy.p0.p0.i64(ptr align 1 %69, ptr align 1 %71, i64 %72, i1 false)
  %73 = load ptr, ptr %6, align 8, !tbaa !21
  %74 = getelementptr inbounds nuw %struct.prov_cipher_ctx_st, ptr %73, i32 0, i32 19
  %75 = load ptr, ptr %74, align 8, !tbaa !27
  %76 = getelementptr inbounds nuw %struct.prov_cipher_hw_st, ptr %75, i32 0, i32 1
  %77 = load ptr, ptr %76, align 8, !tbaa !28
  %78 = load ptr, ptr %6, align 8, !tbaa !21
  %79 = load ptr, ptr %8, align 8, !tbaa !16
  %80 = getelementptr inbounds i8, ptr %79, i64 -16
  %81 = getelementptr inbounds [16 x i8], ptr %10, i64 0, i64 0
  %82 = call i32 %77(ptr noundef %78, ptr noundef %80, ptr noundef %81, i64 noundef 16)
  %83 = icmp ne i32 %82, 0
  br i1 %83, label %85, label %84

84:                                               ; preds = %58
  store i64 0, ptr %5, align 8
  store i32 1, ptr %12, align 4
  br label %89

85:                                               ; preds = %58
  %86 = load i64, ptr %9, align 8, !tbaa !7
  %87 = load i64, ptr %11, align 8, !tbaa !7
  %88 = add i64 %86, %87
  store i64 %88, ptr %5, align 8
  store i32 1, ptr %12, align 4
  br label %89

89:                                               ; preds = %85, %84, %57, %34, %15
  call void @llvm.lifetime.end.p0(i64 8, ptr %11) #5
  call void @llvm.lifetime.end.p0(i64 16, ptr %10) #5
  %90 = load i64, ptr %5, align 8
  ret i64 %90
}