; Function Attrs: nounwind uwtable
define internal fastcc i64 @cts128_cs3_encrypt(ptr noundef %0, ptr noundef %1, ptr noundef nonnull %2, i64 noundef range(i64 16, 0) %3) unnamed_addr #2 {
  %5 = alloca %union.aligned_16bytes, align 8
  call void @llvm.lifetime.start.p0(i64 16, ptr nonnull %5) #7
  %6 = icmp eq i64 %3, 16
  br i1 %6, label %7, label %14

7:                                                ; preds = %4
  %8 = getelementptr inbounds nuw i8, ptr %0, i64 168
  %9 = load ptr, ptr %8, align 8, !tbaa !20
  %10 = getelementptr inbounds nuw i8, ptr %9, i64 8
  %11 = load ptr, ptr %10, align 8, !tbaa !21
  %12 = tail call i32 %11(ptr noundef %0, ptr noundef nonnull %2, ptr noundef %1, i64 noundef 16) #7
  %.not33 = icmp eq i32 %12, 0
  %13 = select i1 %.not33, i64 0, i64 16
  br label %33

14:                                               ; preds = %4
  %15 = and i64 %3, 15
  %16 = icmp eq i64 %15, 0
  %spec.store.select = select i1 %16, i64 16, i64 %15
  %17 = sub nuw i64 %3, %spec.store.select
  %18 = getelementptr inbounds nuw i8, ptr %0, i64 168
  %19 = load ptr, ptr %18, align 8, !tbaa !20
  %20 = getelementptr inbounds nuw i8, ptr %19, i64 8
  %21 = load ptr, ptr %20, align 8, !tbaa !21
  %22 = tail call i32 %21(ptr noundef %0, ptr noundef nonnull %2, ptr noundef %1, i64 noundef %17) #7
  %.not = icmp eq i32 %22, 0
  br i1 %.not, label %33, label %23

23:                                               ; preds = %14
  %24 = getelementptr inbounds nuw i8, ptr %1, i64 %17
  %25 = getelementptr inbounds nuw i8, ptr %2, i64 %17
  %26 = sub nuw nsw i64 16, %spec.store.select
  %27 = getelementptr i8, ptr %5, i64 %spec.store.select
  call void @llvm.memset.p0.i64(ptr align 1 %27, i8 0, i64 %26, i1 false)
  call void @llvm.memcpy.p0.p0.i64(ptr noundef nonnull align 8 dereferenceable(1) %5, ptr noundef nonnull align 1 dereferenceable(1) %24, i64 %spec.store.select, i1 false)
  %28 = getelementptr inbounds i8, ptr %25, i64 -16
  tail call void @llvm.memcpy.p0.p0.i64(ptr noundef nonnull align 1 dereferenceable(1) %25, ptr noundef nonnull align 1 dereferenceable(1) %28, i64 %spec.store.select, i1 false)
  %29 = load ptr, ptr %18, align 8, !tbaa !20
  %30 = getelementptr inbounds nuw i8, ptr %29, i64 8
  %31 = load ptr, ptr %30, align 8, !tbaa !21
  %32 = call i32 %31(ptr noundef nonnull %0, ptr noundef nonnull %28, ptr noundef nonnull %5, i64 noundef 16) #7
  %.not32 = icmp eq i32 %32, 0
  %. = select i1 %.not32, i64 0, i64 %3
  br label %33

33:                                               ; preds = %23, %14, %7
  %.0 = phi i64 [ %13, %7 ], [ 0, %14 ], [ %., %23 ]
  call void @llvm.lifetime.end.p0(i64 16, ptr nonnull %5) #7
  ret i64 %.0
}